Certificate:
    Data:
        Version: 3 (0x2)
        Serial Number: 1 (0x1)
    Signature Algorithm: sha256WithRSAEncryption
        Issuer: C=RU, ST=74, L=Paris, O=FC Bank Bank Credit Systems PJSC, OU=dWN0Zl9zdDNnNF9pbl9jZXJ0cw, CN=FC Bank Bank Credit Systems PJSC CA/name=server/emailAddress=hostmaster@bankbank.tech
        Validity
            Not Before: Feb 23 16:37:25 2019 GMT
            Not After : Feb 20 16:37:25 2029 GMT
        Subject: C=RU, ST=74, L=Paris, O=FC Bank Bank Credit Systems PJSC, CN=server/name=server/emailAddress=hostmaster@bankbank.tech
        Subject Public Key Info:
            Public Key Algorithm: rsaEncryption
                Public-Key: (2048 bit)
                Modulus:
                    00:af:36:11:b4:32:29:5a:c9:7a:f0:53:f4:c3:b7:
                    7c:36:a4:4a:b6:af:15:21:24:c1:c9:cb:a8:d4:7b:
                    53:4e:ba:92:9c:18:02:00:47:94:09:7c:96:39:a8:
                    95:82:0f:47:59:06:3c:37:a1:c0:9f:57:97:a3:a0:
                    76:0b:1f:d1:38:b4:1a:ef:61:cf:e8:02:a1:a0:7c:
                    6b:e9:35:e7:29:f7:5f:22:05:00:84:85:6b:6b:9d:
                    db:9d:32:e8:77:42:f8:1d:56:f3:ee:19:69:59:c7:
                    b6:37:12:bb:a4:92:5f:27:43:04:e9:b8:5c:43:bb:
                    20:f1:fc:d3:91:78:8c:90:4f:79:e9:0f:91:2b:d7:
                    b0:a2:c8:8a:a5:c0:21:55:0b:1f:55:fa:b6:38:29:
                    77:4a:89:db:84:f1:c7:78:d9:0b:61:00:33:e9:d4:
                    ae:2e:b0:2e:19:74:02:e1:43:30:ef:55:82:aa:63:
                    42:88:99:9c:6a:59:9e:74:e2:a5:41:4d:33:98:eb:
                    e8:73:a8:73:98:ed:b6:aa:2e:ac:4a:03:46:88:53:
                    22:bf:89:a6:cf:2b:33:b3:ac:32:18:22:7c:03:1d:
                    ab:ae:1a:94:67:45:ae:17:02:44:2c:9a:d7:10:72:
                    b4:c9:86:8e:eb:ef:1b:b6:28:04:94:4a:6b:e8:60:
                    dc:a1
                Exponent: 65537 (0x10001)
        X509v3 extensions:
            X509v3 Basic Constraints: 
                CA:FALSE
            Netscape Cert Type: 
                SSL Server
            Netscape Comment: 
                Easy-RSA Generated Server Certificate
            X509v3 Subject Key Identifier: 
                BB:2E:C2:6A:4E:59:AB:42:40:71:20:D7:D2:15:7C:80:85:8C:C4:EA
            X509v3 Authority Key Identifier: 
                keyid:4F:2E:72:B6:01:85:BF:86:38:E4:C0:42:93:27:C7:F2:C7:2A:58:6E
                DirName:/C=RU/ST=74/L=Paris/O=FC Bank Bank Credit Systems PJSC/OU=dWN0Zl9zdDNnNF9pbl9jZXJ0cw/CN=FC Bank Bank Credit Systems PJSC CA/name=server/emailAddress=hostmaster@bankbank.tech
                serial:DE:B3:98:03:00:12:56:C1

            X509v3 Extended Key Usage: 
                TLS Web Server Authentication
            X509v3 Key Usage: 
                Digital Signature, Key Encipherment
            X509v3 Subject Alternative Name: 
                DNS:server
    Signature Algorithm: sha256WithRSAEncryption
         3e:51:c7:3a:f6:9d:7a:dc:33:05:a1:76:e1:6e:c8:7b:b2:65:
         db:41:96:93:6f:a8:75:ba:18:88:95:cb:1c:af:88:c8:8d:cb:
         36:aa:ac:6d:c1:12:39:ee:76:2b:dc:ac:f7:5d:cd:22:91:fc:
         85:7d:c9:24:82:0e:d0:8a:b7:38:ae:98:53:30:7c:69:9e:df:
         47:b9:fd:51:dd:a7:20:f0:c7:4f:97:74:34:db:f5:a3:3a:7d:
         f1:c6:d3:1d:6d:52:6a:ac:9b:f5:7e:f3:22:c7:0b:fa:96:06:
         3f:6a:bc:f5:4b:f7:94:be:8e:38:6f:df:2e:e0:d5:ac:eb:8d:
         e2:ba:b6:24:b1:c1:5c:52:e1:d9:7c:da:62:9d:fc:a1:fa:b1:
         56:41:80:67:30:d6:55:ce:63:5c:a2:81:1c:96:03:bb:53:83:
         71:c1:d2:ce:ed:2e:66:29:55:fa:74:4b:14:83:20:d3:64:11:
         04:f9:e2:c8:e9:96:cf:65:12:88:dd:c1:38:0a:22:37:65:95:
         4c:bc:18:6d:e9:5b:5f:2a:7d:9a:f9:ef:eb:e1:ff:67:2b:b3:
         ff:7f:21:59:98:70:f7:22:fb:8b:c0:6b:49:64:cf:e4:33:75:
         2b:a3:1f:99:2c:39:3a:e6:6d:77:25:a0:83:cf:03:2e:1c:a9:
         48:65:1a:9b
-----BEGIN CERTIFICATE-----
MIIFyjCCBLKgAwIBAgIBATANBgkqhkiG9w0BAQsFADCB4jELMAkGA1UEBhMCUlUx
CzAJBgNVBAgTAjc0MQ4wDAYDVQQHEwVQYXJpczEpMCcGA1UEChMgRkMgQmFuayBC
YW5rIENyZWRpdCBTeXN0ZW1zIFBKU0MxIzAhBgNVBAsTGmRXTjBabDl6ZERObk5G
OXBibDlqWlhKMGN3MSwwKgYDVQQDEyNGQyBCYW5rIEJhbmsgQ3JlZGl0IFN5c3Rl
bXMgUEpTQyBDQTEPMA0GA1UEKRMGc2VydmVyMScwJQYJKoZIhvcNAQkBFhhob3N0
bWFzdGVyQGJhbmtiYW5rLnRlY2gwHhcNMTkwMjIzMTYzNzI1WhcNMjkwMjIwMTYz
NzI1WjCBoDELMAkGA1UEBhMCUlUxCzAJBgNVBAgTAjc0MQ4wDAYDVQQHEwVQYXJp
czEpMCcGA1UEChMgRkMgQmFuayBCYW5rIENyZWRpdCBTeXN0ZW1zIFBKU0MxDzAN
BgNVBAMTBnNlcnZlcjEPMA0GA1UEKRMGc2VydmVyMScwJQYJKoZIhvcNAQkBFhho
b3N0bWFzdGVyQGJhbmtiYW5rLnRlY2gwggEiMA0GCSqGSIb3DQEBAQUAA4IBDwAw
ggEKAoIBAQCvNhG0MilayXrwU/TDt3w2pEq2rxUhJMHJy6jUe1NOupKcGAIAR5QJ
fJY5qJWCD0dZBjw3ocCfV5ejoHYLH9E4tBrvYc/oAqGgfGvpNecp918iBQCEhWtr
ndudMuh3QvgdVvPuGWlZx7Y3Erukkl8nQwTpuFxDuyDx/NOReIyQT3npD5Er17Ci
yIqlwCFVCx9V+rY4KXdKiduE8cd42QthADPp1K4usC4ZdALhQzDvVYKqY0KImZxq
WZ504qVBTTOY6+hzqHOY7baqLqxKA0aIUyK/iabPKzOzrDIYInwDHauuGpRnRa4X
AkQsmtcQcrTJho7r7xu2KASUSmvoYNyhAgMBAAGjggHJMIIBxTAJBgNVHRMEAjAA
MBEGCWCGSAGG+EIBAQQEAwIGQDA0BglghkgBhvhCAQ0EJxYlRWFzeS1SU0EgR2Vu
ZXJhdGVkIFNlcnZlciBDZXJ0aWZpY2F0ZTAdBgNVHQ4EFgQUuy7Cak5Zq0JAcSDX
0hV8gIWMxOowggEZBgNVHSMEggEQMIIBDIAUTy5ytgGFv4Y45MBCkyfH8scqWG6h
geikgeUwgeIxCzAJBgNVBAYTAlJVMQswCQYDVQQIEwI3NDEOMAwGA1UEBxMFUGFy
aXMxKTAnBgNVBAoTIEZDIEJhbmsgQmFuayBDcmVkaXQgU3lzdGVtcyBQSlNDMSMw
IQYDVQQLExpkV04wWmw5emRETm5ORjlwYmw5alpYSjBjdzEsMCoGA1UEAxMjRkMg
QmFuayBCYW5rIENyZWRpdCBTeXN0ZW1zIFBKU0MgQ0ExDzANBgNVBCkTBnNlcnZl
cjEnMCUGCSqGSIb3DQEJARYYaG9zdG1hc3RlckBiYW5rYmFuay50ZWNoggkA3rOY
AwASVsEwEwYDVR0lBAwwCgYIKwYBBQUHAwEwCwYDVR0PBAQDAgWgMBEGA1UdEQQK
MAiCBnNlcnZlcjANBgkqhkiG9w0BAQsFAAOCAQEAPlHHOvadetwzBaF24W7Ie7Jl
20GWk2+odboYiJXLHK+IyI3LNqqsbcESOe52K9ys913NIpH8hX3JJIIO0Iq3OK6Y
UzB8aZ7fR7n9Ud2nIPDHT5d0NNv1ozp98cbTHW1Saqyb9X7zIscL+pYGP2q89Uv3
lL6OOG/fLuDVrOuN4rq2JLHBXFLh2XzaYp38ofqxVkGAZzDWVc5jXKKBHJYDu1OD
ccHSzu0uZilV+nRLFIMg02QRBPniyOmWz2USiN3BOAoiN2WVTLwYbelbXyp9mvnv
6+H/Zyuz/38hWZhw9yL7i8BrSWTP5DN1K6MfmSw5OuZtdyWgg88DLhypSGUamw==
-----END CERTIFICATE-----
